(dp0
S'params2'
p1
(dp2
S'download_preferences'
p3
(dp4
S'PDBJapan_Search'
p5
S'pdbjs3.protein.osaka-u.ac.jp/xPSSS/index.html'
p6
sS'RCSB_Download_CIF'
p7
S'http://www.rcsb.org/pdb/files/PDBID.cif'
p8
sS'EBI_Download_CIF'
p9
S'https://www.ebi.ac.uk/pdbe/entry-files/download/PDBID.cif'
p10
sS'http_proxy'
p11
S''
p12
sS'PDBJapan_Download_PDB'
p13
S'ftp://www.pdbj.org/pdb_nc/pdbPDBID.ent'
p14
sS'preferred_site'
p15
S'EBI'
p16
sS'EBI_Download_PDB'
p17
S'https://www.ebi.ac.uk/pdbe/entry-files/download/pdbPDBID.ent'
p18
sS'RCSB_Search'
p19
S'www.rcsb.org/pdb'
p20
sS'PDBJapan_Download_CIF'
p21
S'ftp://ftp.pdbj.org/mmcif/PDBID.cif.gz'
p22
sS'http_user'
p23
g12
sS'RCSB_Download_PDB'
p24
S'http://www.rcsb.org/pdb/files/PDBID.pdb'
p25
sS'http_password'
p26
g12
sS'EBI_Search'
p27
S'www.ebi.ac.uk/msd-srv/msdlite/index.html'
p28
ssS'HBond_param'
p29
(dp30
S'max_H_A'
p31
F2.5
sS'min_D_H_A'
p32
F90.0
sS'min_DD_D_A'
p33
F90.0
sS'min_H_A_AA'
p34
F90.0
sS'max_D_A_S'
p35
F3.9
sS'max_D_A'
p36
F3.1
sS'min_D_A_AA'
p37
F90.0
sS'min_D_A'
p38
F2.0
ssS'MapDispParamsManager'
p39
(dp40
S'inside_shiny'
p41
I1
sS'line_width'
p42
F1.0
sS'surface_style'
p43
S'surface_style_chickenwire'
p44
sS'contour_sigma_max'
p45
F5.0
sS'cylinder_width'
p46
F0.03
sS'dot_size'
p47
F1.0
sS'double_side'
p48
I0
sS'ncontours'
p49
I1
sS'inside_colour'
p50
S'default'
p51
sS'other_colour'
p52
S'magenta'
p53
sS'diff_pos_colour'
p54
S'green'
p55
sS'radius'
p56
F10.0
sS'dot_spacing'
p57
F0.3
sS'diff_neg_colour'
p58
S'red'
p59
sS'sampling_rate'
p60
F0.75
sS'contour_scale'
p61
S'absolute'
p62
sS'first_colour'
p63
S'blue'
p64
ssS'Surface_electro'
p65
(dp66
S'ranges'
p67
(lp68
F0.0
aF-0.5
aF0.0
aF0.5
aF0.0
asS'colours'
p69
(lp70
S'red'
p71
aS'red'
p72
aS'white'
p73
aS'blue'
p74
aS'blue'
p75
asS'colour_wheel_direction'
p76
S'clockwise'
p77
sS'interpolate_mode'
p78
S'HSV'
p79
ssS'atom_label_params'
p80
(dp81
S'truncate_mol_name'
p82
I0
sS'show_number_label'
p83
I0
sS'label_select'
p84
S'label_no'
p85
sS'truncate_mol_name_length'
p86
I6
sS'label_style'
p87
(lp88
I0
aI0
aI0
aI1
aI1
aI1
aI1
aI0
aI0
aI0
aI0
aI0
aI0
aI0
aI0
aI0
assS'socket_preferences'
p89
(dp90
S'local_only'
p91
I1
sS'open_socket'
p92
I0
ssS'geometry_preferences'
p93
(dp94
S'style'
p95
S'Line'
p96
sS'single_click_label'
p97
I1
sS'angles_dp'
p98
I1
sS'width'
p99
I4
sS'bonds_dp'
p100
I2
sS'show_angles'
p101
I0
sS'show_torsions'
p102
I0
sS'line_colour'
p103
g59
sS'text_colour'
p104
g51
ssS'render_quality'
p105
(dp106
S'use_vbo'
p107
I1
sS'use_ambocc'
p108
I0
sS'smooth_line'
p109
I1
sS'use_outline'
p110
I0
sS'force_use_va'
p111
I1
sS'use_shadows'
p112
I0
sS'use_shaders'
p113
I0
sS'solid_quality'
p114
I1
ssS'restype'
p115
(dp116
g67
(lp117
S'*'
p118
aS'PHE'
p119
aS'TRP'
p120
aS'TYR'
p121
aS'PRO'
p122
aS'VAL'
p123
aS'ALA'
p124
aS'ILE'
p125
aS'LEU'
p126
aS'SER'
p127
aS'THR'
p128
aS'ASN'
p129
aS'GLN'
p130
aS'ARG'
p131
aS'LYS'
p132
aS'ASP'
p133
aS'GLU'
p134
aS'CYS'
p135
aS'MET'
p136
aS'GLY'
p137
aS'HIS'
p138
aS'A'
p139
aS'T'
p140
aS'G'
p141
aS'C'
p142
aS'U'
p143
aS'DA'
p144
aS'DT'
p145
aS'DG'
p146
aS'DC'
p147
aS'ADE'
p148
aS'THY'
p149
aS'GUA'
p150
aS'CYT'
p151
aS'URA'
p152
aS'BMA'
p153
aS'MAN'
p154
aS'NAG'
p155
aS'GLC'
p156
aS'BGC'
p157
aS'GCS'
p158
aS'GAL'
p159
aS'NGA'
p160
aS'MGC'
p161
aS'NG1'
p162
aS'NG6'
p163
aS'A2G'
p164
aS'6MN'
p165
aS'GLP'
p166
aS'GP4'
p167
aS'BEM'
p168
aS'KDN'
p169
aS'XLS'
p170
aS'CXY'
p171
aS'RBY'
p172
aS'TDX'
p173
aS'XYL'
p174
aS'XYS'
p175
aS'XYP'
p176
aS'FCA'
p177
aS'FCB'
p178
aS'FUC'
p179
aS'GTR'
p180
aS'ADA'
p181
aS'DGU'
p182
aS'SI3'
p183
aS'NCC'
p184
aS'NGF'
p185
aS'NGE'
p186
aS'NGC'
p187
aS'GC4'
p188
aS'GCD'
p189
aS'GCU'
p190
aS'GCV'
p191
aS'GCW'
p192
aS'IDS'
p193
aS'REL'
p194
aS'IDR'
p195
aS'SIA'
p196
asg69
(lp197
S'grey'
p198
aS'magenta'
p199
aS'magenta'
p200
aS'magenta'
p201
aS'coral'
p202
aS'coral'
p203
aS'coral'
p204
aS'coral'
p205
aS'coral'
p206
aS'cyan'
p207
aS'cyan'
p208
aS'cyan'
p209
aS'cyan'
p210
aS'blue'
p211
aS'blue'
p212
aS'red'
p213
aS'red'
p214
aS'yellow'
p215
aS'yellow'
p216
aS'white'
p217
aS'light blue'
p218
aS'red'
p219
aS'yellow'
p220
aS'green'
p221
aS'blue'
p222
aS'magenta'
p223
aS'red'
p224
aS'yellow'
p225
aS'green'
p226
aS'blue'
p227
aS'red'
p228
aS'yellow'
p229
aS'green'
p230
aS'blue'
p231
aS'magenta'
p232
aS'green'
p233
aS'green'
p234
aS'blue'
p235
aS'blue'
p236
aS'blue'
p237
aS'blue'
p238
aS'yellow'
p239
aS'yellow'
p240
aS'yellow'
p241
aS'yellow'
p242
aS'yellow'
p243
aS'yellow'
p244
aS'blue'
p245
aS'blue'
p246
aS'blue'
p247
aS'green'
p248
aS'light green'
p249
aS'coral'
p250
aS'coral'
p251
aS'coral'
p252
aS'coral'
p253
aS'coral'
p254
aS'coral'
p255
aS'coral'
p256
aS'red'
p257
aS'red'
p258
aS'red'
p259
aS'yellow'
p260
aS'yellow'
p261
aS'yellow'
p262
aS'purple'
p263
aS'purple'
p264
aS'light blue'
p265
aS'light blue'
p266
aS'light blue'
p267
aS'blue'
p268
aS'blue'
p269
aS'blue'
p270
aS'blue'
p271
aS'blue'
p272
aS'blue'
p273
aS'blue'
p274
aS'pale brown'
p275
aS'purple'
p276
asg76
g77
sg78
g79
ssS'centre_mode'
p277
(dp278
S'centre_method'
p279
I0
ssS'smiles_preferences'
p280
(dp281
S'niter'
p282
I200
sS'nconf'
p283
I20
ssS'miscell_prefs'
p284
(dp285
S'text_label_background'
p286
I0
sS'flip_text'
p287
I0
sS'fog_text'
p288
I0
sS'depth_text'
p289
I0
sS'text_label_background_colour'
p290
S'white'
p291
ssS'save_session_options'
p292
(dp293
S'backup_data_files'
p294
I0
sS'restore_data'
p295
I1
sS'interpret_old_selections'
p296
I1
sS'save_projects'
p297
I0
sS'ask_restore_data'
p298
I0
ssS'ambient_occlusion_prefs'
p299
(dp300
S'ambocc_znear'
p301
F100.0
sS'ambocc_bias'
p302
F0.3
sS'ambocc_radius'
p303
F15.0
sS'ambocc_scale'
p304
F1.0
sS'ambocc_zfar'
p305
F150.0
ssS'Animation_param'
p306
(dp307
S'delay'
p308
F0.1
sS'flash_delay'
p309
F0.5
sS'update_properties'
p310
I1
ssS'model_drawing_style'
p311
(dp312
S'fat_bond_width'
p313
I4
sS'bond_width'
p314
I2
sS'thin_bond_width'
p315
I1
sS'glycoblock_interaction_dash_length'
p316
F0.36
sS'arrow_length'
p317
F2.2
sS'anisou_scale_byvdw'
p318
I0
sS'grey_ribbon_edge'
p319
I0
sS'worm_width'
p320
F0.2
sS'glycoblock_interaction_line_width'
p321
I2
sS'loop_frac'
p322
I1
sS'dashed_bond_length'
p323
F0.3
sS'dashed_bonds'
p324
I0
sS'glycoblock_interaction_cylinder_radius'
p325
F0.1
sS'glycoblock_draw_cov_protein_interactions'
p326
I1
sS'ballstick_stick'
p327
F0.1
sS'glycoblock_interaction_style'
p328
S'Dashed cylinder'
p329
sS'helix_style'
p330
I0
sS'helix_tube_diameter'
p331
F1.5
sS'sphere_radii_scale'
p332
F1.0
sS'base_block_thickness'
p333
F0.2
sS'anisou_style'
p334
S'solidaxes'
p335
sS'ball_radii_scale'
p336
F0.2
sS'deloc_ring'
p337
I0
sS'anisou_scale'
p338
F1.0
sS'flatten_loop'
p339
I0
sS'glycoblock_scale'
p340
F1.3
sS'glycoblock_interaction_colour'
p341
S'black'
p342
sS'flatten_beta'
p343
I1
sS'ribbon_width'
p344
F2.5
sS'glycoblock_stick_colour'
p345
g342
sS'nucleic_stick_width'
p346
F0.4
sS'glycoblock_label_protein_interactions'
p347
I0
sS'show_multiple_bonds'
p348
I0
sS'arrow_width'
p349
F2.2
sS'glycoblock_draw_protein_interactions'
p350
I0
sS'trace_cutoff'
p351
F4.8
sS'alpha_helix_width'
p352
F1.5
sS'pyramid_size'
p353
F0.1
sS'spline_beta_flat'
p354
I1
sS'cylinder_width'
p355
F0.2
sS'glycoblock_thickness'
p356
F0.35
sS'two_colour_ribbon'
p357
I0
sS'ribbon_style'
p358
I0
ssS'hydrophobicity_preferences'
p359
(dp360
sS'Contacts_param'
p361
(dp362
S'test_VDW_radius'
p363
I0
sS'VDW_fraction_min'
p364
F0.0
sS'simple_min_cutoff'
p365
F0.0
sS'label_VDW_radius'
p366
I0
sS'exclude_hbondable'
p367
I0
sS'simple_max_cutoff'
p368
F4.0
sS'VDW_fraction_max'
p369
F0.9
sS'test_metal_coord_distance'
p370
I1
ssS'surface_drawing_styleCpCHIM_cleanSurfaceDispobj3'
p371
(dp372
S'inside_shiny'
p373
I1
sS'line_width'
p374
F1.0
sS'probe_radius'
p375
F1.5
sS'resolution_delta'
p376
I30
sS'dot_spacing'
p377
F0.1
sS'blend_edges'
p378
I0
sS'dot_size'
p379
F1.0
sS'double_side'
p380
I0
sS'inside_colour'
p381
g51
sS'context_cutoff'
p382
F6.0
sS'warning_on'
p383
I1
sS'warning_limit'
p384
I1000
ssS'HBond_drawing_style'
p385
(dp386
g42
I2
sS'contacts_line_style'
p387
S'lines'
p388
sS'label_mode'
p389
I0
sS'contacts_label_mode'
p390
I1
sS'contacts_line_width'
p391
I2
sS'line_style'
p392
g388
ssS'stereo_prefs'
p393
(dp394
S'stereo_mode'
p395
I1
sS'shear_sep'
p396
F0.1
sS'rot_sep'
p397
F6.0
ssS'SecStr_param'
p398
(dp399
S'min_helix_length'
p400
I4
sS'flagBulge'
p401
I1
ssS'screenshot_preferences'
p402
(dp403
S'offscreen'
p404
I1
sS'antialias'
p405
I1
ssS'Surface_map'
p406
(dp407
g67
(lp408
F0.0
aF-0.5
aF0.0
aF0.5
aF0.0
asg69
(lp409
S'red'
p410
aS'red'
p411
aS'white'
p412
aS'blue'
p413
aS'blue'
p414
asg76
g77
sg78
g79
ssS'sequence_preferences'
p415
(dp416
S'muscle_exe'
p417
g12
sS'cobalt_dir'
p418
g12
sS'colouring_mode'
p419
I0
sS'blastdb_exe'
p420
g12
sS'cobalt_exe'
p421
g12
sS'mrbump_ccp4_dir'
p422
g12
sS'min_seq_length'
p423
I10
sS'blast_db'
p424
g12
sS'blastp_exe'
p425
g12
sS'font_size'
p426
I12
sS'blastn_exe'
p427
g12
sS'allow_remote_blast'
p428
I0
ssS'advanced_options'
p429
(dp430
S'iconized_display_table'
p431
I0
sS'super_compact_display_table'
p432
I0
sS'dockable_display_table'
p433
I1
sS'developer_mode'
p434
I0
ssS'atomtype'
p435
(dp436
g67
(lp437
g118
aS' C'
p438
aS' O'
p439
aS' N'
p440
aS' S'
p441
aS' H'
p442
aS' P'
p443
asg69
(lp444
S'grey'
p445
aS'green'
p446
aS'red'
p447
aS'blue'
p448
aS'yellow'
p449
aS'grey'
p450
aS'magenta'
p451
asg76
g77
sg78
g79
ssS'secstr'
p452
(dp453
g67
(lp454
S'No structure'
p455
aS'Beta strand'
p456
aS'Beta bulge'
p457
aS'3-turn'
p458
aS'4-turn'
p459
aS'5-turn'
p460
aS'Alpha helix'
p461
asg69
(lp462
S'grey'
p463
aS'blue'
p464
aS'blue'
p465
aS'pink'
p466
aS'tan'
p467
aS'coral'
p468
aS'red'
p469
asg76
g77
sg78
g79
ssS'SASArea_param'
p470
(dp471
S'list_selection_2'
p472
g12
sS'exclude_non_polymer'
p473
I1
sS'brick_margin'
p474
F5.0
sS'list_selection_1'
p475
S'polar_atoms'
p476
sS'limit_selection'
p477
S'amino_acid'
p478
sS'HOHrad'
p479
F1.4
sS'point_density'
p480
F1.0
sS'exclude_solvent'
p481
I1
ssS'movie_preferences'
p482
(dp483
S'show_progress'
p484
I1
sS'player_exe'
p485
S'mplayer'
p486
sS'ffmpeg_exe'
p487
S'ffmpeg'
p488
sS'mencoder_exe'
p489
S'mencoder'
p490
sS'player_command'
p491
S'-loop 0'
p492
sS'convert_command'
p493
S'-quality 100'
p494
sS'mencoder_merge_command'
p495
S'-ovc copy'
p496
sS'convert_exe'
p497
S'convert'
p498
sS'mencoder_command'
p499
S'-ovc lavc -lavcopts vcodec=msmpeg4v2:vbitrate=1800'
p500
sS'ffmpeg_command'
p501
S'-f mpeg -vcodec mpeg1video -ar 48000 -b 7000000 -ab 192000 -y'
p502
ssS'surface_drawing_style'
p503
(dp504
g373
I1
sg374
F1.0
sg375
F1.5
sg376
I30
sg377
F0.1
sg378
I0
sg379
F1.0
sg380
I0
sg381
g51
sg382
F6.0
sg383
I1
sg384
I1000
sssS'gui_params'
p505
(dp506
S'background_colour'
p507
(lp508
I255
aI255
aI255
asS'defaultObjBodyVisibility'
p509
S'open_all'
p510
sS'main_toolbar'
p511
(dp512
S'toolbar_icon_size'
p513
S'medium'
p514
sS'toolbar_loaded_actions'
p515
(lp516
S'open'
p517
aS'download'
p518
aS'save_status_to_file'
p519
aS'screenshot'
p520
aS'view_back'
p521
aS'view_forward'
p522
aS'display_back'
p523
aS'display_forward'
p524
aS'recentre'
p525
aS'centreOn'
p526
aS'clearLabels'
p527
aS'fog_on'
p528
aS'slab_on'
p529
aS'superpose'
p530
aS'open_movie'
p531
aS'new_movie'
p532
aS'preferences'
p533
aS'picture_wizard'
p534
aS'PDB search'
p535
aS'Geometry'
p536
aS'Glycan viewer'
p537
aS'Download electron density'
p538
aS'Pisa structure analysis'
p539
aS'ProSMART analysis'
p540
aS'Sequence viewer'
p541
aS'Simpler Display Table'
p542
acsip
_unpickle_type
p543
(S'PyQt4.QtCore'
p544
S'QString'
p545
(VSequence Viewer
p546
tp547
tp548
Rp549
asS'toolbar_style'
p550
S'icon_only'
p551
ssS'last_directory'
p552
S'C:/Users/juanc/Desktop/2021/chitinase/CpCHIM_clean'
p553
sS'rockParams'
p554
(dp555
S'rollorientation'
p556
S'y'
p557
sS'rollspeed'
p558
F0.5
sS'rockspeed'
p559
F0.5
sS'rockangle'
p560
I20
ssS'show_scale'
p561
I0
sS'centre_mode'
p562
I0
sS'show_axes'
p563
I0
ssS'picture_wizard'
p564
(dp565
S'recentre_after_wizard'
p566
I1
sS'keep_display_objects'
p567
I0
sS'recentre'
p568
I0
sS'hide_unselected_dataobj'
p569
I0
sS'show_wizard_choices'
p570
I0
sS'default_drawing_style'
p571
S'Ligand_binding_site:Site_and_ribbons_by_PDB_file'
p572
ssS'view2'
p573
(dp574
S'scale'
p575
F236.8339031920811
sS'fog_strength'
p576
I0
sS'transparency'
p577
I00
sS'fog_auto'
p578
I00
sS'quat'
p579
(lp580
F0.8912665422156653
aF0.06905977691879277
aF-0.05832716468487291
aF-0.44437893716829824
asS'slab_auto'
p581
I00
sS'pos'
p582
(lp583
F-35.1691370309951
aF28.277263186514357
aF-8.147397498640581
asS'customClipPlanes'
p584
(lp585
sS'slab_offset'
p586
I0
sS'clip_cap'
p587
I00
sS'fog_near'
p588
F-0.0
sS'slab_enabled'
p589
I00
sS'fog_enabled'
p590
I0
sS'slab_width'
p591
I10
sS'fog_far'
p592
F20.0
ssS'applications'
p593
(dp594
S'run_coot'
p595
(dp596
S'setup_script'
p597
g12
ssS'picture_wizard'
p598
(dp599
g566
I1
sg567
I0
sg568
I0
sg569
I0
sg570
I0
sg571
g572
ssS'Superpose'
p600
(dp601
S'fixed_mask_colour'
p602
S'yellow'
p603
sS'monomer_keep_matches'
p604
I0
sS'apply_interactive_all'
p605
I0
sS'close_atoms_res_cutoff'
p606
F2.0
sS'show_mask'
p607
I0
sS'close_atoms_cutoff'
p608
F0.5
sS'close_atoms_initial_global'
p609
I0
sS'show_equiv_mol'
p610
S'CpCHIM_PHYREINTENSIVO_min_modified_1'
p611
sS'show_equivalents'
p612
I0
sS'close_atoms_central_atom'
p613
S' CA '
p614
sS'show_distances'
p615
I1
sS'moving_mask_colour'
p616
g53
sS'fixed'
p617
S'CpCHIM_PHYREINTENSIVO_min_modified'
p618
sS'selected_atoms_mode'
p619
S'catrace'
p620
sS'conn_colour'
p621
g342
sS'superposeModels'
p622
(dp623
g611
(dp624
S'matches'
p625
(lp626
sS'on'
p627
I1
sS'MolData_name'
p628
g611
sS'selection'
p629
S'all'
p630
sS'fixed_MolData_name'
p631
g618
ssg618
(dp632
g625
(lp633
sg627
I1
sg628
g618
sg629
g630
sg631
g618
sssS'method'
p634
S'ssm'
p635
sS'selected_atoms_selection'
p636
(lp637
S'CA'
p638
aS'CB'
p639
asssS'AllModelInfo'
p640
(dp641
S'CpCHIM_clean'
p642
(iModelInfo
ModInfo
p643
(dp644
S'ccp4mg_version'
p645
S'2.10.11'
p646
sS'pdbfile'
p647
S'C:/Users/juanc/Desktop/2021/chitinase/CpCHIM_clean/CpCHIM_clean.pdb'
p648
sS'selection_protocols'
p649
(dp650
S'element'
p651
(dp652
S' S'
p653
g653
sS'ORDER'
p654
(lp655
g653
asssbssS'light'
p656
(dp657
I0
(dp658
S'position'
p659
(F0.0
F0.0
F60.0
tp660
sS'on'
p661
I1
sS'specular'
p662
(F1.0
F1.0
F1.0
tp663
sS'diffuse'
p664
(F1.0
F1.0
F1.0
tp665
sS'ambient'
p666
(F0.0
F0.0
F0.0
tp667
ssS'nLights'
p668
I1
ssS'COLOUR'
p669
(lp670
(lp671
(lp672
g51
a(lp673
F1.0
aF1.0
aF1.0
aF1.0
aaa(lp674
S'ice blue'
p675
a(lp676
F0.61
aF0.69
aF1.0
aF1.0
aaa(lp677
S'gold'
p678
a(lp679
F0.7
aF0.69
aF0.24
aF1.0
aaa(lp680
S'coral'
p681
a(lp682
F1.0
aF0.5
aF0.31
aF1.0
aaa(lp683
S'grey'
p684
a(lp685
F0.5
aF0.5
aF0.5
aF1.0
aaa(lp686
S'pink'
p687
a(lp688
F1.0
aF0.57
aF1.0
aF1.0
aaa(lp689
S'sea green'
p690
a(lp691
F0.5
aF0.73
aF0.71
aF1.0
aaa(lp692
S'pale brown'
p693
a(lp694
F0.66
aF0.49
aF0.37
aF1.0
aaa(lp695
S'lilac'
p696
a(lp697
F0.68
aF0.53
aF0.73
aF1.0
aaa(lp698
S'lemon'
p699
a(lp700
F1.0
aF1.0
aF0.5
aF1.0
aaa(lp701
S'lawn green'
p702
a(lp703
F0.27
aF0.61
aF0.31
aF1.0
aaa(lp704
S'pale crimson'
p705
a(lp706
F0.82
aF0.24
aF0.24
aF1.0
aaa(lp707
S'light blue'
p708
a(lp709
F0.25
aF0.6
aF0.88
aF1.0
aaa(lp710
S'tan'
p711
a(lp712
F0.47
aF0.0
aF0.0
aF1.0
aaa(lp713
S'light green'
p714
a(lp715
F0.6
aF1.0
aF0.6
aF1.0
aaa(lp716
g603
a(lp717
F1.0
aF1.0
aF0.0
aF1.0
aaa(lp718
S'white'
p719
a(lp720
F1.0
aF1.0
aF1.0
aF1.0
aaa(lp721
g64
a(lp722
F0.0
aF0.0
aF1.0
aF1.0
aaa(lp723
g59
a(lp724
F1.0
aF0.0
aF0.0
aF1.0
aaa(lp725
g55
a(lp726
F0.0
aF1.0
aF0.0
aF1.0
aaa(lp727
g53
a(lp728
F1.0
aF0.0
aF1.0
aF1.0
aaa(lp729
S'cyan'
p730
a(lp731
F0.0
aF1.0
aF0.88
aF1.0
aaa(lp732
S'purple'
p733
a(lp734
F0.58
aF0.0
aF1.0
aF1.0
aaa(lp735
S'dark purple'
p736
a(lp737
F0.57
aF0.13
aF0.34
aF1.0
aaa(lp738
S'dark cyan'
p739
a(lp740
F0.06
aF0.58
aF0.65
aF1.0
aaa(lp741
g342
a(lp742
F0.0
aF0.0
aF0.0
aF1.0
aaa(lp743
S'alice blue'
p744
a(lp745
F0.94
aF0.97
aF1.0
aF1.0
aaa(lp746
S'antique white'
p747
a(lp748
F0.98
aF0.92
aF0.84
aF1.0
aaa(lp749
S'aqua'
p750
a(lp751
F0.0
aF1.0
aF1.0
aF1.0
aaa(lp752
S'aquamarine'
p753
a(lp754
F0.5
aF1.0
aF0.83
aF1.0
aaa(lp755
S'azure'
p756
a(lp757
F0.94
aF1.0
aF1.0
aF1.0
aaa(lp758
S'beige'
p759
a(lp760
F0.96
aF0.96
aF0.86
aF1.0
aaa(lp761
S'bisque'
p762
a(lp763
F1.0
aF0.89
aF0.77
aF1.0
aaa(lp764
S'blanched almond'
p765
a(lp766
F1.0
aF0.92
aF0.8
aF1.0
aaa(lp767
S'blue violet'
p768
a(lp769
F0.54
aF0.17
aF0.89
aF1.0
aaa(lp770
S'brown'
p771
a(lp772
F0.65
aF0.16
aF0.16
aF1.0
aaa(lp773
S'burlywood'
p774
a(lp775
F0.87
aF0.72
aF0.53
aF1.0
aaa(lp776
S'cadet blue'
p777
a(lp778
F0.37
aF0.62
aF0.63
aF1.0
aaa(lp779
S'chartreuse'
p780
a(lp781
F0.5
aF1.0
aF0.0
aF1.0
aaa(lp782
S'chocolate'
p783
a(lp784
F0.82
aF0.41
aF0.12
aF1.0
aaa(lp785
S'cornflower blue'
p786
a(lp787
F0.39
aF0.58
aF0.93
aF1.0
aaa(lp788
S'cornsilk'
p789
a(lp790
F1.0
aF0.97
aF0.86
aF1.0
aaa(lp791
S'crimson'
p792
a(lp793
F0.86
aF0.08
aF0.24
aF1.0
aaa(lp794
S'dark blue'
p795
a(lp796
F0.0
aF0.0
aF0.55
aF1.0
aaa(lp797
S'dark goldenrod'
p798
a(lp799
F0.72
aF0.53
aF0.04
aF1.0
aaa(lp800
S'dark gray'
p801
a(lp802
F0.66
aF0.66
aF0.66
aF1.0
aaa(lp803
S'dark green'
p804
a(lp805
F0.0
aF0.39
aF0.0
aF1.0
aaa(lp806
S'dark grey'
p807
a(lp808
F0.66
aF0.66
aF0.66
aF1.0
aaa(lp809
S'dark khaki'
p810
a(lp811
F0.74
aF0.72
aF0.42
aF1.0
aaa(lp812
S'dark magenta'
p813
a(lp814
F0.55
aF0.0
aF0.55
aF1.0
aaa(lp815
S'dark olive green'
p816
a(lp817
F0.33
aF0.42
aF0.18
aF1.0
aaa(lp818
S'dark orange'
p819
a(lp820
F1.0
aF0.55
aF0.0
aF1.0
aaa(lp821
S'dark orchid'
p822
a(lp823
F0.6
aF0.2
aF0.8
aF1.0
aaa(lp824
S'dark red'
p825
a(lp826
F0.55
aF0.0
aF0.0
aF1.0
aaa(lp827
S'dark salmon'
p828
a(lp829
F0.91
aF0.59
aF0.48
aF1.0
aaa(lp830
S'dark sea green'
p831
a(lp832
F0.56
aF0.74
aF0.56
aF1.0
aaa(lp833
S'dark slate blue'
p834
a(lp835
F0.28
aF0.24
aF0.55
aF1.0
aaa(lp836
S'dark slate gray'
p837
a(lp838
F0.18
aF0.31
aF0.31
aF1.0
aaa(lp839
S'dark slate grey'
p840
a(lp841
F0.18
aF0.31
aF0.31
aF1.0
aaa(lp842
S'dark turquoise'
p843
a(lp844
F0.0
aF0.81
aF0.82
aF1.0
aaa(lp845
S'dark violet'
p846
a(lp847
F0.58
aF0.0
aF0.83
aF1.0
aaa(lp848
S'deep pink'
p849
a(lp850
F1.0
aF0.08
aF0.58
aF1.0
aaa(lp851
S'deep sky blue'
p852
a(lp853
F0.0
aF0.75
aF1.0
aF1.0
aaa(lp854
S'dim gray'
p855
a(lp856
F0.41
aF0.41
aF0.41
aF1.0
aaa(lp857
S'dim grey'
p858
a(lp859
F0.41
aF0.41
aF0.41
aF1.0
aaa(lp860
S'dodger blue'
p861
a(lp862
F0.12
aF0.56
aF1.0
aF1.0
aaa(lp863
S'firebrick'
p864
a(lp865
F0.7
aF0.13
aF0.13
aF1.0
aaa(lp866
S'floral white'
p867
a(lp868
F1.0
aF0.98
aF0.94
aF1.0
aaa(lp869
S'forest green'
p870
a(lp871
F0.13
aF0.55
aF0.13
aF1.0
aaa(lp872
S'fuchsia'
p873
a(lp874
F1.0
aF0.0
aF1.0
aF1.0
aaa(lp875
S'gainsboro'
p876
a(lp877
F0.86
aF0.86
aF0.86
aF1.0
aaa(lp878
S'ghost white'
p879
a(lp880
F0.97
aF0.97
aF1.0
aF1.0
aaa(lp881
S'goldenrod'
p882
a(lp883
F0.85
aF0.65
aF0.13
aF1.0
aaa(lp884
S'gray'
p885
a(lp886
F0.75
aF0.75
aF0.75
aF1.0
aaa(lp887
S'green yellow'
p888
a(lp889
F0.68
aF1.0
aF0.18
aF1.0
aaa(lp890
S'honeydew'
p891
a(lp892
F0.94
aF1.0
aF0.94
aF1.0
aaa(lp893
S'hot pink'
p894
a(lp895
F1.0
aF0.41
aF0.71
aF1.0
aaa(lp896
S'indian red'
p897
a(lp898
F0.8
aF0.36
aF0.36
aF1.0
aaa(lp899
S'indigo'
p900
a(lp901
F0.29
aF0.0
aF0.51
aF1.0
aaa(lp902
S'ivory'
p903
a(lp904
F1.0
aF1.0
aF0.94
aF1.0
aaa(lp905
S'khaki'
p906
a(lp907
F0.94
aF0.9
aF0.55
aF1.0
aaa(lp908
S'lavender blush'
p909
a(lp910
F1.0
aF0.94
aF0.96
aF1.0
aaa(lp911
S'lavender'
p912
a(lp913
F0.9
aF0.9
aF0.98
aF1.0
aaa(lp914
S'lemon chiffon'
p915
a(lp916
F1.0
aF0.98
aF0.8
aF1.0
aaa(lp917
S'light coral'
p918
a(lp919
F0.94
aF0.5
aF0.5
aF1.0
aaa(lp920
S'light cyan'
p921
a(lp922
F0.88
aF1.0
aF1.0
aF1.0
aaa(lp923
S'light goldenrod yellow'
p924
a(lp925
F0.98
aF0.98
aF0.82
aF1.0
aaa(lp926
S'light goldenrod'
p927
a(lp928
F0.93
aF0.87
aF0.51
aF1.0
aaa(lp929
S'light gray'
p930
a(lp931
F0.83
aF0.83
aF0.83
aF1.0
aaa(lp932
S'light grey'
p933
a(lp934
F0.83
aF0.83
aF0.83
aF1.0
aaa(lp935
S'light pink'
p936
a(lp937
F1.0
aF0.71
aF0.76
aF1.0
aaa(lp938
S'light salmon'
p939
a(lp940
F1.0
aF0.63
aF0.48
aF1.0
aaa(lp941
S'light sea green'
p942
a(lp943
F0.13
aF0.7
aF0.67
aF1.0
aaa(lp944
S'light sky blue'
p945
a(lp946
F0.53
aF0.81
aF0.98
aF1.0
aaa(lp947
S'light slate blue'
p948
a(lp949
F0.52
aF0.44
aF1.0
aF1.0
aaa(lp950
S'light slate gray'
p951
a(lp952
F0.47
aF0.53
aF0.6
aF1.0
aaa(lp953
S'light slate grey'
p954
a(lp955
F0.47
aF0.53
aF0.6
aF1.0
aaa(lp956
S'light steel blue'
p957
a(lp958
F0.69
aF0.77
aF0.87
aF1.0
aaa(lp959
S'light yellow'
p960
a(lp961
F1.0
aF1.0
aF0.88
aF1.0
aaa(lp962
S'lime green'
p963
a(lp964
F0.2
aF0.8
aF0.2
aF1.0
aaa(lp965
S'lime'
p966
a(lp967
F0.0
aF1.0
aF0.0
aF1.0
aaa(lp968
S'linen'
p969
a(lp970
F0.98
aF0.94
aF0.9
aF1.0
aaa(lp971
S'maroon'
p972
a(lp973
F0.69
aF0.19
aF0.38
aF1.0
aaa(lp974
S'medium aquamarine'
p975
a(lp976
F0.4
aF0.8
aF0.67
aF1.0
aaa(lp977
S'medium blue'
p978
a(lp979
F0.0
aF0.0
aF0.8
aF1.0
aaa(lp980
S'medium orchid'
p981
a(lp982
F0.73
aF0.33
aF0.83
aF1.0
aaa(lp983
S'medium purple'
p984
a(lp985
F0.58
aF0.44
aF0.86
aF1.0
aaa(lp986
S'medium sea green'
p987
a(lp988
F0.24
aF0.7
aF0.44
aF1.0
aaa(lp989
S'medium slate blue'
p990
a(lp991
F0.48
aF0.41
aF0.93
aF1.0
aaa(lp992
S'medium spring green'
p993
a(lp994
F0.0
aF0.98
aF0.6
aF1.0
aaa(lp995
S'medium turquoise'
p996
a(lp997
F0.28
aF0.82
aF0.8
aF1.0
aaa(lp998
S'medium violet red'
p999
a(lp1000
F0.78
aF0.08
aF0.52
aF1.0
aaa(lp1001
S'midnight blue'
p1002
a(lp1003
F0.1
aF0.1
aF0.44
aF1.0
aaa(lp1004
S'mint cream'
p1005
a(lp1006
F0.96
aF1.0
aF0.98
aF1.0
aaa(lp1007
S'misty rose'
p1008
a(lp1009
F1.0
aF0.89
aF0.88
aF1.0
aaa(lp1010
S'moccasin'
p1011
a(lp1012
F1.0
aF0.89
aF0.71
aF1.0
aaa(lp1013
S'navajo white'
p1014
a(lp1015
F1.0
aF0.87
aF0.68
aF1.0
aaa(lp1016
S'navy blue'
p1017
a(lp1018
F0.0
aF0.0
aF0.5
aF1.0
aaa(lp1019
S'navy'
p1020
a(lp1021
F0.0
aF0.0
aF0.5
aF1.0
aaa(lp1022
S'old lace'
p1023
a(lp1024
F0.99
aF0.96
aF0.9
aF1.0
aaa(lp1025
S'olive drab'
p1026
a(lp1027
F0.42
aF0.56
aF0.14
aF1.0
aaa(lp1028
S'olive'
p1029
a(lp1030
F0.5
aF0.5
aF0.0
aF1.0
aaa(lp1031
S'orange red'
p1032
a(lp1033
F1.0
aF0.27
aF0.0
aF1.0
aaa(lp1034
S'orange'
p1035
a(lp1036
F1.0
aF0.65
aF0.0
aF1.0
aaa(lp1037
S'orchid'
p1038
a(lp1039
F0.85
aF0.44
aF0.84
aF1.0
aaa(lp1040
S'pale goldenrod'
p1041
a(lp1042
F0.93
aF0.91
aF0.67
aF1.0
aaa(lp1043
S'pale green'
p1044
a(lp1045
F0.6
aF0.98
aF0.6
aF1.0
aaa(lp1046
S'pale turquoise'
p1047
a(lp1048
F0.69
aF0.93
aF0.93
aF1.0
aaa(lp1049
S'pale violet red'
p1050
a(lp1051
F0.86
aF0.44
aF0.58
aF1.0
aaa(lp1052
S'papaya whip'
p1053
a(lp1054
F1.0
aF0.94
aF0.84
aF1.0
aaa(lp1055
S'peach puff'
p1056
a(lp1057
F1.0
aF0.85
aF0.73
aF1.0
aaa(lp1058
S'peru'
p1059
a(lp1060
F0.8
aF0.52
aF0.25
aF1.0
aaa(lp1061
S'plum'
p1062
a(lp1063
F0.87
aF0.63
aF0.87
aF1.0
aaa(lp1064
S'powder blue'
p1065
a(lp1066
F0.69
aF0.88
aF0.9
aF1.0
aaa(lp1067
S'rebecca purple'
p1068
a(lp1069
F0.4
aF0.2
aF0.6
aF1.0
aaa(lp1070
S'rosy brown'
p1071
a(lp1072
F0.74
aF0.56
aF0.56
aF1.0
aaa(lp1073
S'royal blue'
p1074
a(lp1075
F0.25
aF0.41
aF0.88
aF1.0
aaa(lp1076
S'saddle brown'
p1077
a(lp1078
F0.55
aF0.27
aF0.07
aF1.0
aaa(lp1079
S'salmon'
p1080
a(lp1081
F0.98
aF0.5
aF0.45
aF1.0
aaa(lp1082
S'sandy brown'
p1083
a(lp1084
F0.96
aF0.64
aF0.38
aF1.0
aaa(lp1085
S'seashell'
p1086
a(lp1087
F1.0
aF0.96
aF0.93
aF1.0
aaa(lp1088
S'sienna'
p1089
a(lp1090
F0.63
aF0.32
aF0.18
aF1.0
aaa(lp1091
S'silver'
p1092
a(lp1093
F0.75
aF0.75
aF0.75
aF1.0
aaa(lp1094
S'sky blue'
p1095
a(lp1096
F0.53
aF0.81
aF0.92
aF1.0
aaa(lp1097
S'slate blue'
p1098
a(lp1099
F0.42
aF0.35
aF0.8
aF1.0
aaa(lp1100
S'slate gray'
p1101
a(lp1102
F0.44
aF0.5
aF0.56
aF1.0
aaa(lp1103
S'slate grey'
p1104
a(lp1105
F0.44
aF0.5
aF0.56
aF1.0
aaa(lp1106
S'snow'
p1107
a(lp1108
F1.0
aF0.98
aF0.98
aF1.0
aaa(lp1109
S'spring green'
p1110
a(lp1111
F0.0
aF1.0
aF0.5
aF1.0
aaa(lp1112
S'steel blue'
p1113
a(lp1114
F0.27
aF0.51
aF0.71
aF1.0
aaa(lp1115
S'teal'
p1116
a(lp1117
F0.0
aF0.5
aF0.5
aF1.0
aaa(lp1118
S'thistle'
p1119
a(lp1120
F0.85
aF0.75
aF0.85
aF1.0
aaa(lp1121
S'tomato'
p1122
a(lp1123
F1.0
aF0.39
aF0.28
aF1.0
aaa(lp1124
S'turquoise'
p1125
a(lp1126
F0.25
aF0.88
aF0.82
aF1.0
aaa(lp1127
S'violet red'
p1128
a(lp1129
F0.82
aF0.13
aF0.56
aF1.0
aaa(lp1130
S'violet'
p1131
a(lp1132
F0.93
aF0.51
aF0.93
aF1.0
aaa(lp1133
S'web gray'
p1134
a(lp1135
F0.5
aF0.5
aF0.5
aF1.0
aaa(lp1136
S'web green'
p1137
a(lp1138
F0.0
aF0.5
aF0.0
aF1.0
aaa(lp1139
S'web grey'
p1140
a(lp1141
F0.5
aF0.5
aF0.5
aF1.0
aaa(lp1142
S'web maroon'
p1143
a(lp1144
F0.5
aF0.0
aF0.0
aF1.0
aaa(lp1145
S'web purple'
p1146
a(lp1147
F0.5
aF0.0
aF0.5
aF1.0
aaa(lp1148
S'wheat'
p1149
a(lp1150
F0.96
aF0.87
aF0.7
aF1.0
aaa(lp1151
S'white smoke'
p1152
a(lp1153
F0.96
aF0.96
aF0.96
aF1.0
aaa(lp1154
S'x11 gray'
p1155
a(lp1156
F0.75
aF0.75
aF0.75
aF1.0
aaa(lp1157
S'x11 green'
p1158
a(lp1159
F0.0
aF1.0
aF0.0
aF1.0
aaa(lp1160
S'x11 grey'
p1161
a(lp1162
F0.75
aF0.75
aF0.75
aF1.0
aaa(lp1163
S'x11 maroon'
p1164
a(lp1165
F0.69
aF0.19
aF0.38
aF1.0
aaa(lp1166
S'x11 purple'
p1167
a(lp1168
F0.63
aF0.13
aF0.94
aF1.0
aaa(lp1169
S'yellow green'
p1170
a(lp1171
F0.6
aF0.8
aF0.2
aF1.0
aaaaI169
asS'fonts'
p1172
(dp1173
S'atom_label'
p1174
(dp1175
S'size'
p1176
I13
sS'underline'
p1177
I0
sS'weight'
p1178
S'normal'
p1179
sS'family'
p1180
g543
(g544
S'QString'
p1181
(VMS Shell Dlg 2
p1182
tp1183
tp1184
Rp1185
sS'slant'
p1186
S'r'
p1187
ssS'applicationFont'
p1188
(dp1189
g1176
I8
sg1177
I0
sg1178
g1179
sg1180
g543
(g544
S'QString'
p1190
(VMS Shell Dlg 2
p1191
tp1192
tp1193
Rp1194
sg1186
g1187
ssS'annotation'
p1195
(dp1196
g1176
I18
sg1177
I0
sg1178
g1179
sg1180
g543
(g544
S'QString'
p1197
(VMS Shell Dlg 2
p1198
tp1199
tp1200
Rp1201
sg1186
g1187
ssS'pick_atom_label'
p1202
(dp1203
g1176
I13
sg1177
I0
sg1178
g1179
sg1180
g543
(g544
S'QString'
p1204
(VMS Shell Dlg 2
p1205
tp1206
tp1207
Rp1208
sg1186
g1187
ssS'legend'
p1209
(dp1210
g1176
I32
sg1177
I0
sg1178
g1179
sg1180
g543
(g544
S'QString'
p1211
(VMS Shell Dlg 2
p1212
tp1213
tp1214
Rp1215
sg1186
g1187
sssS'CpCHIM_clean_1'
p1216
(idataobj
DataObjShadow
p1217
(dp1218
S'name'
p1219
g1216
sS'object_type'
p1220
S'MolData'
p1221
sS'objnames'
p1222
(lp1223
S'CpCHIM_clean_1MolDisp1'
p1224
asS'filename'
p1225
(lp1226
S'FULLPATH'
p1227
ag648
ag648
asS'dataparams'
p1228
(dp1229
S'expanded'
p1230
I1
sS'uuid'
p1231
S'EE289F0258FC47CBB9EC50848DC931D9'
p1232
sS'mol_colour'
p1233
g675
sS'check_graphs'
p1234
I01
sg1220
g1221
sS'show_aromatic_rings'
p1235
I1
sS'module'
p1236
S'model'
p1237
sg1225
g1226
sS'visible'
p1238
I1
sS'customResCIFFiles'
p1239
(dp1240
sS'ccp4mg_creator_version'
p1241
g646
sS'model_symmetry'
p1242
(dp1243
S'symmetry_visible'
p1244
(lp1245
sS'symmetry_colours'
p1246
(lp1247
sS'MolDisp_selection'
p1248
S'all atoms'
p1249
sS'symmetry_MolDisp_objects'
p1250
(lp1251
sS'MolDisp_visible'
p1252
I1
ssS'lastWizardRun'
p1253
S'Ligand_binding_site:Site_and_ribbons_by_PDB_file'
p1254
ssg1238
I1
sS'objinsts'
p1255
(lp1256
(idataobj
DispObjShadow
p1257
(dp1258
S'colparams'
p1259
(dp1260
S'interface_MolData_name'
p1261
g12
sS'non_C_atomtype'
p1262
I0
sS'colour_blend'
p1263
(dp1264
g69
(lp1265
(lp1266
S'blue'
p1267
aS'red'
p1268
aasS'selection_command'
p1269
(lp1270
S'peptide'
p1271
asS'direction'
p1272
(lp1273
S'anti-clockwise'
p1274
asS'default_colour'
p1275
g291
sS'group'
p1276
S'residue'
p1277
sS'type'
p1278
S'all'
p1279
ssS'one_colour'
p1280
g12
sS'user_scheme'
p1281
(lp1282
S'Edited scheme'
p1283
asS'stick_colour'
p1284
S'ATOM'
p1285
sS'colour_legend'
p1286
S'<span style="color:;">User colour rules </span>\n</p><p><span style="color:coral;">SEC == none </span>\n</p><p><span style="color:blue;">SEC == strand </span>\n</p><p><span style="color:burlywood;">SEC == bulge </span>\n</p><p><span style="color:pink;">SEC == 3turn </span>\n</p><p><span style="color:tan;">SEC == 4turn </span>\n</p><p><span style="color:coral;">SEC == 5turn </span>\n</p><p><span style="color:orange red;">SEC == helix </span>\n</p><p>'
p1287
sS'interface_selection'
p1288
g12
sS'colour_mode'
p1289
S'rules'
p1290
sS'colour_rules'
p1291
(lp1292
(lp1293
S'coral'
p1294
ag12
aa(lp1295
S'coral'
p1296
a(lp1297
NaS'SEC == none'
p1298
aaa(lp1299
S'blue'
p1300
a(lp1301
NaS'SEC == strand'
p1302
aaa(lp1303
S'burlywood'
p1304
a(lp1305
NaS'SEC == bulge'
p1306
aaa(lp1307
S'pink'
p1308
a(lp1309
NaS'SEC == 3turn'
p1310
aaa(lp1311
S'tan'
p1312
a(lp1313
NaS'SEC == 4turn'
p1314
aaa(lp1315
S'coral'
p1316
a(lp1317
NaS'SEC == 5turn'
p1318
aaa(lp1319
S'orange red'
p1320
a(lp1321
NaS'SEC == helix'
p1322
aaasS'interface_style'
p1323
S'RESIDUE'
p1324
ssg1219
g1224
sg1220
S'MolDisp'
p1325
sg1238
I1
sS'selparams'
p1326
(dp1327
S'features'
p1328
g12
sS'symid'
p1329
g12
sS'neighb_mol'
p1330
g12
sS'ranges_neighb_invert'
p1331
I0
sS'buried_sel'
p1332
g12
sS'contact_mol'
p1333
g12
sS'property_join'
p1334
S'and'
p1335
sS'neighb_rad'
p1336
S'4.0'
p1337
sS'select'
p1338
g1279
sS'restypes'
p1339
(lp1340
sS'ranges_neighb_cutoff'
p1341
F4.0
sS'ranges_extend'
p1342
I1
sS'nmr_models'
p1343
(lp1344
sS'ranges_neighb_model'
p1345
g12
sS'sites'
p1346
(lp1347
sS'ranges_neighb_qualifier'
p1348
g1279
sS'neighb_excl_solvent'
p1349
I0
sS'buried_mol'
p1350
g12
sS'entities'
p1351
(lp1352
sS'same_as'
p1353
I0
sS'secstr'
p1354
(lp1355
sS'neighb_hb'
p1356
I0
sS'nglycosylation'
p1357
(lp1358
sS'chains'
p1359
(lp1360
sS'property_gt_value'
p1361
(lp1362
sS'alt_locs'
p1363
(lp1364
sS'contact_sel'
p1365
g12
sS'property_gt_op'
p1366
(lp1367
sS'nothydrogen'
p1368
I0
sS'buried_group'
p1369
S'atom'
p1370
sS'property_lt_value'
p1371
(lp1372
sS'as_MolDisp'
p1373
g12
sg67
(lp1374
sS'elementtypes'
p1375
(lp1376
sS'neighb_excl_monomer'
p1377
I0
sS'selection_scheme'
p1378
g12
sS'ranges_qualifier'
p1379
g12
sS'ligands'
p1380
(lp1381
sS'neighb_sel'
p1382
g12
sS'use_all_models'
p1383
I00
sS'neighb_sym'
p1384
I0
sS'user_sel'
p1385
g12
sS'cid'
p1386
g12
sS'neighb_excl'
p1387
I1
sS'property_lt_op'
p1388
(lp1389
sS'ranges_invert'
p1390
I0
sS'atomtype'
p1391
g12
sS'command'
p1392
g1279
sS'neighb_selobj'
p1393
g12
sS'neighb_group'
p1394
g1277
sS'buried_and_selection'
p1395
g12
sS'property'
p1396
(lp1397
sS'ranges_neighb_selection'
p1398
g12
sS'oglycosylation'
p1399
(lp1400
ssS'params'
p1401
(dp1402
S'opacity'
p1403
F1.0
sg1231
S'0599CC133F9F4D919089C8C716A36A88'
p1404
sS'doCentralSymmetry'
p1405
I01
sS'legend_visible'
p1406
I0
sS'nbiomol'
p1407
I-1
sg1238
I1
sS'doSymmetry'
p1408
I01
sS'customSelectionName'
p1409
g12
sS'display_class'
p1410
g12
sS'doBiomolecule'
p1411
I00
sS'contact_MolDisp'
p1412
g12
sS'label_params'
p1413
(dp1414
g87
g88
sS'label_user_oneperres'
p1415
I1
sS'label_colour'
p1416
S'complement'
p1417
sg82
I0
sS'label_user_selparams'
p1418
(dp1419
sg84
g85
sg86
I6
sssS'styleparams'
p1420
(dp1421
S'style_mode'
p1422
S'SPLINE'
p1423
sS'inter_dispobj_bond'
p1424
I00
ssbasbsS'pick_labels'
p1425
(dp1426
S'max_labels'
p1427
I20
sg82
I0
sg86
I6
sg87
(lp1428
I0
aI0
aI0
aI1
aI1
aI1
aI1
aI0
aI0
aI0
aI0
aI0
aI0
aI0
aI0
aI0
assS'file_viewer'
p1429
(dp1430
S'supported_plugins'
p1431
(dp1432
ssS'Data_list'
p1433
(lp1434
g642
ag1216
asS'version'
p1435
g646
sS'ModelInfo'
p1436
(dp1437
S'user_file'
p1438
(dp1439
S'generic'
p1440
(lp1441
S'dotCCP4MG'
p1442
aS'generic.ccp4mg'
p1443
aS'C:\\Users\\juanc\\CCP4MG2\\generic.ccp4mg'
p1444
asssS'plugins'
p1445
(dp1446
S'Render'
p1447
(dp1448
S'scalebartext'
p1449
I00
sS'stereo'
p1450
I00
sS'save_status'
p1451
I01
sS'dpi_spin'
p1452
I300
sS'scaleFonts'
p1453
I1
sS'stereo_sep'
p1454
F0.1
sS'height_dpi_inches'
p1455
F4.0
sS'height'
p1456
I600
sS'stereo_angle'
p1457
F6.0
sS'width'
p1458
I600
sS'magnification'
p1459
F1.0
sS'keepAspect'
p1460
I0
sS'size_mode'
p1461
S'window'
p1462
sS'scaleLines'
p1463
I0
sS'stereo_mode'
p1464
S'shear'
p1465
sS'scaleImages'
p1466
I1
sS'preview'
p1467
I01
sS'transparent'
p1468
I00
sS'renderParams'
p1469
(dp1470
S'ambocc_samples'
p1471
I2048
sS'save_rib'
p1472
I00
sS'ambocc_scale'
p1473
F1.0
sS'ambocc'
p1474
I01
sS'smoothRibbons'
p1475
I01
sS'raytrace'
p1476
I00
ssS'width_dpi_inches'
p1477
F6.0
ssS'ShadersPlugin'
p1478
(dp1479
g112
I0
sg113
I0
sg110
I0
sg108
I0
sssS'mouse_bindings'
p1480
(dp1481
S'translate-z'
p1482
(dp1483
S'shift'
p1484
I0
sS'alt'
p1485
I0
sS'mouse_button'
p1486
S'middle'
p1487
sS'key'
p1488
S'z'
p1489
sS'ctrl'
p1490
I0
ssS'object-rotate-xy'
p1491
(dp1492
g1484
I0
sg1485
I0
sg1486
S'left'
p1493
sg1488
S'x'
p1494
sg1490
I0
ssS'rotate-xy'
p1495
(dp1496
g1484
I0
sg1485
I0
sg1486
g1493
sg1488
S' '
p1497
sg1490
I0
ssS'object-translate-z'
p1498
(dp1499
g1484
I1
sg1485
I0
sg1486
g1487
sg1488
g1494
sg1490
I0
ssS'zoom'
p1500
(dp1501
g1484
I0
sg1485
I0
sg1486
g1487
sg1488
g1497
sg1490
I0
ssS'translate-xy'
p1502
(dp1503
g1484
I1
sg1485
I0
sg1486
g1487
sg1488
g1497
sg1490
I0
ssS'clip-width'
p1504
(dp1505
g1484
I0
sg1485
I0
sg1486
g1487
sg1488
S'c'
p1506
sg1490
I0
ssS'rotate-z'
p1507
(dp1508
g1484
I1
sg1485
I0
sg1486
g1493
sg1488
g1497
sg1490
I0
ssS'object-rotate-z'
p1509
(dp1510
g1484
I1
sg1485
I0
sg1486
g1493
sg1488
g1494
sg1490
I0
ssS'object-translate-xy'
p1511
(dp1512
g1484
I0
sg1485
I0
sg1486
g1487
sg1488
g1494
sg1490
I0
sssS'windowGeometry'
p1513
g543
(g544
S'QByteArray'
p1514
(S'\x01\xd9\xd0\xcb\x00\x01\x00\x00\x00\x00\x00\x00\x00\x00\x00\x00\x00\x00\x05U\x00\x00\x02\xff\x00\x00\x01^\x00\x00\x01\x06\x00\x00\x04}\x00\x00\x03\x05\x00\x00\x00\x00\x00\x04'
p1515
tp1516
tp1517
Rp1518
sg642
(idataobj
DataObjShadow
p1519
(dp1520
g1219
g642
sg1220
g1221
sg1222
(lp1521
S'CpCHIM_cleanMolDisp1'
p1522
aS'CpCHIM_cleanMolDisp2'
p1523
aS'CpCHIM_cleanSurfaceDispobj3'
p1524
asg1225
g1226
sg1228
(dp1525
g1230
I1
sg1231
S'57A308D2C0214D848B3BB494D43EEDD9'
p1526
sg1233
g675
sg1234
I1
sg1220
g1221
sg1235
I1
sg1236
g1237
sg1225
g1226
sg1238
I1
sg1239
g1240
sg1241
g646
sg1242
(dp1527
g1244
g1245
sg1246
g1247
sg1248
g1249
sg1250
g1251
sg1252
I1
ssg1253
g1254
ssg1238
I1
sg1255
(lp1528
(idataobj
DispObjShadow
p1529
(dp1530
g1259
(dp1531
g1261
g12
sg1262
I0
sg1263
(dp1532
g69
g1265
sg1269
g1270
sg1272
g1273
sg1275
g291
sg1276
g1277
sg1278
g1279
ssg1280
g675
sg1281
(lp1533
S'Edited scheme'
p1534
asg1284
g1285
sg1286
S'<span style="color:ice blue;">CpCHIM_clean </span>\n</p><p>'
p1535
sg1288
g12
sg1289
g1280
sg1291
(lp1536
sg1323
g1324
ssg1219
g1522
sg1220
g1325
sg1238
I0
sg1326
(dp1537
g1328
g12
sg1329
g12
sg1330
g12
sg1331
I0
sg1332
g12
sg1333
g12
sg1334
g1335
sg1336
g1337
sg1338
g1386
sg1339
(lp1538
sg1341
F4.0
sg1342
I1
sg1343
(lp1539
sg1345
g12
sg1346
(lp1540
sg1348
g1279
sg1349
I0
sg1350
g12
sg1351
(lp1541
sg1353
I0
sg1354
(lp1542
sg1356
I0
sg1357
(lp1543
sg1359
(lp1544
sg1361
(lp1545
sg1363
(lp1546
sg1365
g12
sg1366
(lp1547
sg1368
I0
sg1369
g1370
sg1371
(lp1548
sg1373
g12
sg67
(lp1549
sg1375
(lp1550
sg1377
I0
sg1378
g12
sg1379
g12
sg1380
(lp1551
sg1382
g12
sg1383
I00
sg1384
I0
sg1385
g12
sg1386
g1271
sg1387
I1
sg1388
(lp1552
sg1390
I0
sg1391
g12
sg1392
g1271
sg1393
g12
sg1394
g1277
sg1395
g12
sg1396
(lp1553
sg1398
g12
sg1399
(lp1554
ssg1401
(dp1555
g1403
F1.0
sg1231
S'BD27CC2FCB404FD2BA07066EDC9CEA56'
p1556
sg1405
I01
sg1406
I0
sg1407
I-1
sg1238
I0
sg1408
I01
sg1409
g12
sg1410
S'ribbon'
p1557
sg1411
I00
sg1412
g12
sg1413
(dp1558
g87
g88
sg1415
I1
sg1416
g1417
sg82
I0
sg1418
g1419
sg84
g85
sg86
I6
sssg1420
(dp1559
g1422
g1423
sg1424
I1
ssba(idataobj
DispObjShadow
p1560
(dp1561
g1259
(dp1562
g1261
g12
sg1262
I0
sg1263
(dp1563
g69
g1265
sg1269
g1270
sg1272
g1273
sg1275
g291
sg1276
g1277
sg1278
g1279
ssg1280
g12
sg1281
g1533
sg1284
g1285
sg1286
S'<p><span style="color:;">Atom type </span>\n</p><p><span style="color:green;">C  </span>\n<span style="color:red;">O  </span>\n<span style="color:blue;">N  </span>\n<span style="color:yellow;">S  </span>\n<span style="color:grey;">H  </span>\n<span style="color:magenta;">P  </span>\n</p>'
p1564
sg1288
g12
sg1289
g1391
sg1291
g1536
sg1323
g1324
ssg1219
g1523
sg1220
g1325
sg1238
I0
sg1326
(dp1565
g1328
g12
sg1329
g12
sg1330
g12
sg1331
I0
sg1332
g12
sg1333
g12
sg1334
g1335
sg1336
g1337
sg1338
g1386
sg1339
(lp1566
sg1341
F4.0
sg1342
I1
sg1343
(lp1567
sg1345
g12
sg1346
(lp1568
sg1348
g1279
sg1349
I0
sg1350
g12
sg1351
(lp1569
sg1353
I0
sg1354
(lp1570
sg1356
I0
sg1357
(lp1571
sg1359
(lp1572
sg1361
(lp1573
sg1363
(lp1574
sg1365
g12
sg1366
(lp1575
sg1368
I0
sg1369
g1370
sg1371
(lp1576
sg1373
g12
sg67
(lp1577
sg1375
(lp1578
sg1377
I0
sg1378
g12
sg1379
g12
sg1380
(lp1579
sg1382
g12
sg1383
I00
sg1384
I0
sg1385
g12
sg1386
g1279
sg1387
I1
sg1388
(lp1580
sg1390
I0
sg1391
g12
sg1392
g1279
sg1393
g12
sg1394
g1277
sg1395
g12
sg1396
(lp1581
sg1398
g12
sg1399
(lp1582
ssg1401
(dp1583
g1403
F1.0
sg1231
S'85049C72D8014853BB5857D4B6E177A5'
p1584
sg1405
I01
sg1406
I0
sg1407
I-1
sg1238
I0
sg1408
I01
sg1409
g12
sg1410
S'bonds'
p1585
sg1411
I00
sg1412
g12
sg1413
(dp1586
g87
g88
sg1415
I1
sg1416
g1417
sg82
I0
sg1418
g1419
sg84
g85
sg86
I6
sssg1420
(dp1587
g1422
S'BONDS'
p1588
sg1424
I1
ssba(idataobj
DispObjShadow
p1589
(dp1590
g1259
(dp1591
g1261
g12
sg1262
I0
sg1263
(dp1592
g69
g1265
sg1269
g1270
sg1272
g1273
sg1275
g291
sg1276
g1277
sg1278
g1279
ssg1280
g12
sg1281
(lp1593
g1283
asg1284
g1285
sg1286
S'<span style="color:;">User colour rules </span>\n</p><p><span style="color:azure;">// /* </span>\n</p><p>'
p1594
sg1288
g12
sg1289
g1290
sg1291
(lp1595
(lp1596
S'cornsilk'
p1597
ag12
aa(lp1598
S'azure'
p1599
a(lp1600
NaS'// /*'
p1601
aaasg1323
g1324
ssg1219
g1524
sg1220
S'SurfaceDispobj'
p1602
sg1238
I1
sg1326
(dp1603
g1328
g12
sg1329
g12
sg1330
g12
sg1331
I0
sg1332
g12
sg1333
g12
sg1334
g1335
sg1336
g1337
sg1338
g1271
sg1339
(lp1604
sg1341
F4.0
sg1342
I1
sg1343
(lp1605
sg1345
g12
sg1346
(lp1606
sg1348
g1279
sg1349
I0
sg1350
g12
sg1351
(lp1607
sg1353
I0
sg1354
(lp1608
sg1356
I0
sg1357
(lp1609
sg1359
(lp1610
sg1361
(lp1611
sg1363
(lp1612
sg1365
g12
sg1366
(lp1613
sg1368
I0
sg1369
g1370
sg1371
(lp1614
sg1373
g12
sg67
(lp1615
sg1375
(lp1616
sg1377
I0
sg1378
g12
sg1379
g12
sg1380
(lp1617
sg1382
g12
sg1383
I00
sg1384
I0
sg1385
g12
sg1386
g12
sg1387
I1
sg1388
(lp1618
sg1390
I0
sg1391
g12
sg1392
g1271
sg1393
g12
sg1394
g1277
sg1395
g12
sg1396
(lp1619
sg1398
g12
sg1399
(lp1620
ssg1401
(dp1621
g1403
F0.384
sS'drawing_style'
p1622
g371
sg1231
S'BA574F02F4B24147B30EA0DC7B3200D4'
p1623
sg1406
I0
sg1238
I1
sS'surface_style'
p1624
S'solid'
p1625
sg1409
g12
sg1410
S'whole_surface'
p1626
sS'surface_type'
p1627
S'normal'
p1628
ssg1420
(dp1629
g1328
g12
sg1329
g12
sg1330
g12
sg1331
I0
sg1332
g12
sg1333
g12
sg1334
g1335
sg1336
g1337
sg1338
S'all'
p1630
sg1339
(lp1631
sg1341
F4.0
sg1342
I1
sg1343
(lp1632
sg1345
g12
sg1346
(lp1633
sg1348
g1279
sg1349
I0
sg1350
g12
sg1351
(lp1634
sg1353
g12
sg1354
(lp1635
sg1356
I0
sg1357
(lp1636
sg1359
(lp1637
sg1361
(lp1638
sg1363
(lp1639
sg1365
g12
sg1366
(lp1640
sg1368
I0
sg1369
g1370
sg1371
(lp1641
sg1373
g12
sg67
(lp1642
sg1375
(lp1643
sg1377
I0
sg1378
g12
sg1379
g12
sg1380
(lp1644
sg1382
g12
sg1383
I00
sg1384
I0
sg1385
g12
sg1386
g12
sg1387
I1
sg1388
(lp1645
sg1390
I0
sg1391
g12
sg1392
g1630
sg1393
g12
sg1394
g1277
sg1395
g12
sg1396
(lp1646
sg1398
g12
sg1399
(lp1647
ssbasbs.